; Function Attrs: mustprogress uwtable
define hidden void @_ZN5smtfd14plugin_context5resetER3refI5modelE(ptr noundef nonnull align 8 captures(none) dereferenceable(72) %0, ptr noundef nonnull readonly align 8 captures(none) dereferenceable(8) %1) local_unnamed_addr #3 align 2 {
  %3 = getelementptr inbounds nuw i8, ptr %0, i64 16
  %4 = getelementptr inbounds nuw i8, ptr %0, i64 24
  %5 = load ptr, ptr %4, align 8, !tbaa !19
  %6 = icmp eq ptr %5, null
  br i1 %6, label %_ZN15ref_vector_coreI4expr19ref_manager_wrapperIS0_11ast_managerEE5resetEv.exit, label %_ZNK6vectorIP4exprLb0EjE4sizeEv.exit.i

_ZNK6vectorIP4exprLb0EjE4sizeEv.exit.i:           ; preds = %2
  %7 = getelementptr inbounds i8, ptr %5, i64 -4
  %8 = load i32, ptr %7, align 4, !tbaa !10
  %9 = zext i32 %8 to i64
  %10 = getelementptr inbounds nuw ptr, ptr %5, i64 %9
  %.not.i = icmp eq i32 %8, 0
  br i1 %.not.i, label %_ZN15ref_vector_coreI4expr19ref_manager_wrapperIS0_11ast_managerEE13dec_range_refEPKPS0_S7_.exit.thread4.i, label %.lr.ph.i.i

.lr.ph.i.i:                                       ; preds = %_ZNK6vectorIP4exprLb0EjE4sizeEv.exit.i, %_ZN15ref_vector_coreI4expr19ref_manager_wrapperIS0_11ast_managerEE7dec_refEPS0_.exit.i.i
  %.06.i.i = phi ptr [ %19, %_ZN15ref_vector_coreI4expr19ref_manager_wrapperIS0_11ast_managerEE7dec_refEPS0_.exit.i.i ], [ %5, %_ZNK6vectorIP4exprLb0EjE4sizeEv.exit.i ]
  %11 = load ptr, ptr %.06.i.i, align 8, !tbaa !34
  %12 = load ptr, ptr %3, align 8, !tbaa !36
  %.not.i.i.i.i.i = icmp eq ptr %11, null
  br i1 %.not.i.i.i.i.i, label %_ZN15ref_vector_coreI4expr19ref_manager_wrapperIS0_11ast_managerEE7dec_refEPS0_.exit.i.i, label %13

13:                                               ; preds = %.lr.ph.i.i
  %14 = getelementptr inbounds nuw i8, ptr %11, i64 8
  %15 = load i32, ptr %14, align 4, !tbaa !37
  %16 = add i32 %15, -1
  store i32 %16, ptr %14, align 4, !tbaa !37
  %17 = icmp eq i32 %16, 0
  br i1 %17, label %18, label %_ZN15ref_vector_coreI4expr19ref_manager_wrapperIS0_11ast_managerEE7dec_refEPS0_.exit.i.i

18:                                               ; preds = %13
  tail call void @_ZN11ast_manager11delete_nodeEP3ast(ptr noundef nonnull align 8 dereferenceable(976) %12, ptr noundef nonnull %11)
  br label %_ZN15ref_vector_coreI4expr19ref_manager_wrapperIS0_11ast_managerEE7dec_refEPS0_.exit.i.i

_ZN15ref_vector_coreI4expr19ref_manager_wrapperIS0_11ast_managerEE7dec_refEPS0_.exit.i.i: ; preds = %18, %13, %.lr.ph.i.i
  %19 = getelementptr inbounds nuw i8, ptr %.06.i.i, i64 8
  %20 = icmp ult ptr %19, %10
  br i1 %20, label %.lr.ph.i.i, label %_ZN15ref_vector_coreI4expr19ref_manager_wrapperIS0_11ast_managerEE13dec_range_refEPKPS0_S7_.exit.i, !llvm.loop !39

_ZN15ref_vector_coreI4expr19ref_manager_wrapperIS0_11ast_managerEE13dec_range_refEPKPS0_S7_.exit.i: ; preds = %_ZN15ref_vector_coreI4expr19ref_manager_wrapperIS0_11ast_managerEE7dec_refEPS0_.exit.i.i
  %.pre.i = load ptr, ptr %4, align 8, !tbaa !19
  %.not.i.i = icmp eq ptr %.pre.i, null
  br i1 %.not.i.i, label %_ZN15ref_vector_coreI4expr19ref_manager_wrapperIS0_11ast_managerEE5resetEv.exit, label %_ZN15ref_vector_coreI4expr19ref_manager_wrapperIS0_11ast_managerEE13dec_range_refEPKPS0_S7_.exit.thread4.i

_ZN15ref_vector_coreI4expr19ref_manager_wrapperIS0_11ast_managerEE13dec_range_refEPKPS0_S7_.exit.thread4.i: ; preds = %_ZN15ref_vector_coreI4expr19ref_manager_wrapperIS0_11ast_managerEE13dec_range_refEPKPS0_S7_.exit.i, %_ZNK6vectorIP4exprLb0EjE4sizeEv.exit.i
  %21 = phi ptr [ %.pre.i, %_ZN15ref_vector_coreI4expr19ref_manager_wrapperIS0_11ast_managerEE13dec_range_refEPKPS0_S7_.exit.i ], [ %5, %_ZNK6vectorIP4exprLb0EjE4sizeEv.exit.i ]
  %22 = getelementptr inbounds i8, ptr %21, i64 -4
  store i32 0, ptr %22, align 4, !tbaa !10
  br label %_ZN15ref_vector_coreI4expr19ref_manager_wrapperIS0_11ast_managerEE5resetEv.exit

_ZN15ref_vector_coreI4expr19ref_manager_wrapperIS0_11ast_managerEE5resetEv.exit: ; preds = %2, %_ZN15ref_vector_coreI4expr19ref_manager_wrapperIS0_11ast_managerEE13dec_range_refEPKPS0_S7_.exit.i, %_ZN15ref_vector_coreI4expr19ref_manager_wrapperIS0_11ast_managerEE13dec_range_refEPKPS0_S7_.exit.thread4.i
  %23 = getelementptr inbounds nuw i8, ptr %0, i64 64
  %24 = load ptr, ptr %1, align 8, !tbaa !55
  %.not.i.i9 = icmp eq ptr %24, null
  br i1 %.not.i.i9, label %_ZN3refI5modelE7inc_refEv.exit.i, label %25

25:                                               ; preds = %_ZN15ref_vector_coreI4expr19ref_manager_wrapperIS0_11ast_managerEE5resetEv.exit
  %26 = getelementptr inbounds nuw i8, ptr %24, i64 16
  %27 = load i32, ptr %26, align 8, !tbaa !56
  %28 = add i32 %27, 1
  store i32 %28, ptr %26, align 8, !tbaa !56
  br label %_ZN3refI5modelE7inc_refEv.exit.i

_ZN3refI5modelE7inc_refEv.exit.i:                 ; preds = %25, %_ZN15ref_vector_coreI4expr19ref_manager_wrapperIS0_11ast_managerEE5resetEv.exit
  %29 = load ptr, ptr %23, align 8, !tbaa !55
  %.not.i3.i = icmp eq ptr %29, null
  br i1 %.not.i3.i, label %_ZN3refI5modelEaSERS1_.exit, label %30

30:                                               ; preds = %_ZN3refI5modelE7inc_refEv.exit.i
  %31 = getelementptr inbounds nuw i8, ptr %29, i64 16
  %32 = load i32, ptr %31, align 8, !tbaa !56
  %33 = add i32 %32, -1
  store i32 %33, ptr %31, align 8, !tbaa !56
  %34 = icmp eq i32 %33, 0
  br i1 %34, label %35, label %_ZN3refI5modelEaSERS1_.exit

35:                                               ; preds = %30
  %36 = load ptr, ptr %29, align 8, !tbaa !14
  %37 = load ptr, ptr %36, align 8
  tail call void %37(ptr noundef nonnull align 8 dereferenceable(96) %29) #22
  tail call void @_ZN6memory10deallocateEPv(ptr noundef nonnull align 8 dereferenceable(96) %29)
  %.pre.i10 = load ptr, ptr %1, align 8, !tbaa !55
  br label %_ZN3refI5modelEaSERS1_.exit

_ZN3refI5modelEaSERS1_.exit:                      ; preds = %_ZN3refI5modelE7inc_refEv.exit.i, %30, %35
  %38 = phi ptr [ %24, %_ZN3refI5modelE7inc_refEv.exit.i ], [ %24, %30 ], [ %.pre.i10, %35 ]
  store ptr %38, ptr %23, align 8, !tbaa !55
  %39 = getelementptr inbounds nuw i8, ptr %0, i64 56
  %40 = load ptr, ptr %39, align 8, !tbaa !3
  %41 = icmp eq ptr %40, null
  br i1 %41, label %._crit_edge, label %_ZN6vectorIPN5smtfd13theory_pluginELb0EjE3endEv.exit

_ZN6vectorIPN5smtfd13theory_pluginELb0EjE3endEv.exit: ; preds = %_ZN3refI5modelEaSERS1_.exit
  %42 = getelementptr inbounds i8, ptr %40, i64 -4
  %43 = load i32, ptr %42, align 4, !tbaa !10
  %44 = zext i32 %43 to i64
  %45 = getelementptr inbounds nuw ptr, ptr %40, i64 %44
  %.not11 = icmp eq i32 %43, 0
  br i1 %.not11, label %._crit_edge, label %.lr.ph

._crit_edge:                                      ; preds = %.lr.ph, %_ZN3refI5modelEaSERS1_.exit, %_ZN6vectorIPN5smtfd13theory_pluginELb0EjE3endEv.exit
  ret void

.lr.ph:                                           ; preds = %_ZN6vectorIPN5smtfd13theory_pluginELb0EjE3endEv.exit, %.lr.ph
  %.012 = phi ptr [ %50, %.lr.ph ], [ %40, %_ZN6vectorIPN5smtfd13theory_pluginELb0EjE3endEv.exit ]
  %46 = load ptr, ptr %.012, align 8, !tbaa !12
  %47 = load ptr, ptr %46, align 8, !tbaa !14
  %48 = getelementptr inbounds nuw i8, ptr %47, i64 80
  %49 = load ptr, ptr %48, align 8
  tail call void %49(ptr noundef nonnull align 8 dereferenceable(144) %46)
  %50 = getelementptr inbounds nuw i8, ptr %.012, i64 8
  %.not = icmp eq ptr %50, %45
  br i1 %.not, label %._crit_edge, label %.lr.ph
}